target datalayout = "e-m:e-p270:32:32-p271:32:32-p272:64:64-i64:64-i128:128-f80:128-n8:16:32:64-S128"
target triple = "x86_64-pc-linux-gnu"

; Function Attrs: mustprogress uwtable
define hidden noundef ptr @_ZN6google8protobuf21FastInt64ToBufferLeftElPc(i64 noundef %0, ptr noundef %1) #4 {
  %3 = alloca i64, align 8
  %4 = alloca ptr, align 8
  %5 = alloca i64, align 8
  store i64 %0, ptr %3, align 8, !tbaa !13
  store ptr %1, ptr %4, align 8, !tbaa !8
  call void @llvm.lifetime.start.p0(i64 8, ptr %5) #3
  store i64 0, ptr %5, align 8, !tbaa !13
  %6 = load i64, ptr %3, align 8, !tbaa !13
  %7 = icmp slt i64 %6, 0
  br i1 %7, label %8, label %14

8:                                                ; preds = %2
  %9 = load ptr, ptr %4, align 8, !tbaa !8
  %10 = getelementptr inbounds nuw i8, ptr %9, i32 1
  store ptr %10, ptr %4, align 8, !tbaa !8
  store i8 45, ptr %9, align 1, !tbaa !10
  %11 = load i64, ptr %3, align 8, !tbaa !13
  %12 = load i64, ptr %5, align 8, !tbaa !13
  %13 = sub i64 %12, %11
  store i64 %13, ptr %5, align 8, !tbaa !13
  br label %16

14:                                               ; preds = %2
  %15 = load i64, ptr %3, align 8, !tbaa !13
  store i64 %15, ptr %5, align 8, !tbaa !13
  br label %16

16:                                               ; preds = %14, %8
  %17 = load i64, ptr %5, align 8, !tbaa !13
  %18 = load ptr, ptr %4, align 8, !tbaa !8
  %19 = call noundef ptr @_ZN6google8protobuf22FastUInt64ToBufferLeftEmPc(i64 noundef %17, ptr noundef %18)
  call void @llvm.lifetime.end.p0(i64 8, ptr %5) #3
  ret ptr %19
}